target datalayout = "e-m:e-p270:32:32-p271:32:32-p272:64:64-i64:64-i128:128-f80:128-n8:16:32:64-S128"
target triple = "x86_64-pc-linux-gnu"

%class.MarkedFileReader = type { %class.FileReader, i64 }
%class.FileReader = type { ptr, ptr }
%"class.DwarfFile::DebugAranges" = type { ptr, %"class.DwarfFile::MarkedDwarfFileReader", i64, i64 }
%"class.DwarfFile::MarkedDwarfFileReader" = type { %class.MarkedFileReader, i64, i64 }
%"struct.DwarfFile::DebugAranges::DebugArangesSetHeader" = type { i32, i16, i32, i8, i8 }

; Function Attrs: mustprogress nounwind uwtable
define hidden noundef zeroext i1 @_ZN10FileReader4readEPvm(ptr noundef nonnull align 8 dereferenceable(16) %0, ptr noundef %1, i64 noundef %2) #1 align 2 {
  %4 = alloca ptr, align 8
  %5 = alloca ptr, align 8
  %6 = alloca i64, align 8
  store ptr %0, ptr %4, align 8
  store ptr %1, ptr %5, align 8
  store i64 %2, ptr %6, align 8
  %7 = load ptr, ptr %4, align 8
  %8 = load ptr, ptr %5, align 8
  %9 = load i64, ptr %6, align 8
  %10 = getelementptr inbounds %class.FileReader, ptr %7, i32 0, i32 1
  %11 = load ptr, ptr %10, align 8
  %12 = call i64 @fread(ptr noundef %8, i64 noundef %9, i64 noundef 1, ptr noundef %11)
  %13 = icmp eq i64 %12, 1
  ret i1 %13
}

; Function Attrs: mustprogress nounwind uwtable
define hidden noundef zeroext i1 @_ZN9DwarfFile21MarkedDwarfFileReader13move_positionEl(ptr noundef nonnull align 8 dereferenceable(40) %0, i64 noundef %1) #1 align 2 {
  %3 = alloca i1, align 1
  %4 = alloca ptr, align 8
  %5 = alloca i64, align 8
  store ptr %0, ptr %4, align 8
  store i64 %1, ptr %5, align 8
  %6 = load ptr, ptr %4, align 8
  %7 = load i64, ptr %5, align 8
  %8 = icmp eq i64 %7, 0
  br i1 %8, label %9, label %10

9:                                                ; preds = %2
  store i1 true, ptr %3, align 1
  br label %19

10:                                               ; preds = %2
  %11 = getelementptr inbounds %"class.DwarfFile::MarkedDwarfFileReader", ptr %6, i32 0, i32 1
  %12 = load i64, ptr %11, align 8
  %13 = load i64, ptr %5, align 8
  %14 = add nsw i64 %12, %13
  %15 = load ptr, ptr %6, align 8
  %16 = getelementptr inbounds ptr, ptr %15, i64 0
  %17 = load ptr, ptr %16, align 8
  %18 = call noundef zeroext i1 %17(ptr noundef nonnull align 8 dereferenceable(40) %6, i64 noundef %14)
  store i1 %18, ptr %3, align 1
  br label %19

19:                                               ; preds = %10, %9
  %20 = load i1, ptr %3, align 1
  ret i1 %20
}

; Function Attrs: mustprogress nounwind uwtable
define hidden noundef zeroext i1 @_ZN9DwarfFile21MarkedDwarfFileReader9read_byteEPv(ptr noundef nonnull align 8 dereferenceable(40) %0, ptr noundef %1) #1 align 2 {
  %3 = alloca ptr, align 8
  %4 = alloca ptr, align 8
  store ptr %0, ptr %3, align 8
  store ptr %1, ptr %4, align 8
  %5 = load ptr, ptr %3, align 8
  %6 = getelementptr inbounds %"class.DwarfFile::MarkedDwarfFileReader", ptr %5, i32 0, i32 1
  %7 = load i64, ptr %6, align 8
  %8 = add nsw i64 %7, 1
  store i64 %8, ptr %6, align 8
  %9 = load ptr, ptr %4, align 8
  %10 = call noundef zeroext i1 @_ZN10FileReader4readEPvm(ptr noundef nonnull align 8 dereferenceable(16) %5, ptr noundef %9, i64 noundef 1)
  ret i1 %10
}

; Function Attrs: mustprogress nounwind uwtable
define hidden noundef zeroext i1 @_ZN9DwarfFile21MarkedDwarfFileReader9read_wordEPt(ptr noundef nonnull align 8 dereferenceable(40) %0, ptr noundef %1) #1 align 2 {
  %3 = alloca ptr, align 8
  %4 = alloca ptr, align 8
  store ptr %0, ptr %3, align 8
  store ptr %1, ptr %4, align 8
  %5 = load ptr, ptr %3, align 8
  %6 = getelementptr inbounds %"class.DwarfFile::MarkedDwarfFileReader", ptr %5, i32 0, i32 1
  %7 = load i64, ptr %6, align 8
  %8 = add nsw i64 %7, 2
  store i64 %8, ptr %6, align 8
  %9 = load ptr, ptr %4, align 8
  %10 = call noundef zeroext i1 @_ZN10FileReader4readEPvm(ptr noundef nonnull align 8 dereferenceable(16) %5, ptr noundef %9, i64 noundef 2)
  ret i1 %10
}

; Function Attrs: mustprogress nounwind uwtable
define linkonce_odr hidden noundef i64 @_ZNK9DwarfFile21MarkedDwarfFileReader12get_positionEv(ptr noundef nonnull align 8 dereferenceable(40) %0) #1 comdat align 2 {
  %2 = alloca ptr, align 8
  store ptr %0, ptr %2, align 8
  %3 = load ptr, ptr %2, align 8
  %4 = getelementptr inbounds %"class.DwarfFile::MarkedDwarfFileReader", ptr %3, i32 0, i32 1
  %5 = load i64, ptr %4, align 8
  ret i64 %5
}

; Function Attrs: mustprogress nounwind uwtable
define hidden noundef zeroext i1 @_ZN9DwarfFile21MarkedDwarfFileReader10read_dwordEPj(ptr noundef nonnull align 8 dereferenceable(40) %0, ptr noundef %1) #1 align 2 {
  %3 = alloca ptr, align 8
  %4 = alloca ptr, align 8
  store ptr %0, ptr %3, align 8
  store ptr %1, ptr %4, align 8
  %5 = load ptr, ptr %3, align 8
  %6 = getelementptr inbounds %"class.DwarfFile::MarkedDwarfFileReader", ptr %5, i32 0, i32 1
  %7 = load i64, ptr %6, align 8
  %8 = add nsw i64 %7, 4
  store i64 %8, ptr %6, align 8
  %9 = load ptr, ptr %4, align 8
  %10 = call noundef zeroext i1 @_ZN10FileReader4readEPvm(ptr noundef nonnull align 8 dereferenceable(16) %5, ptr noundef %9, i64 noundef 4)
  ret i1 %10
}

; Function Attrs: mustprogress nounwind uwtable
define hidden noundef zeroext i1 @_ZN9DwarfFile12DebugAranges15read_set_headerERNS0_21DebugArangesSetHeaderE(ptr noundef nonnull align 8 dereferenceable(64) %0, ptr noundef nonnull align 4 dereferenceable(16) %1) #1 align 2 {
  %3 = alloca i1, align 1
  %4 = alloca ptr, align 8
  %5 = alloca ptr, align 8
  %6 = alloca i8, align 1
  %7 = alloca i64, align 8
  store ptr %0, ptr %4, align 8
  store ptr %1, ptr %5, align 8
  %8 = load ptr, ptr %4, align 8
  %9 = getelementptr inbounds %"class.DwarfFile::DebugAranges", ptr %8, i32 0, i32 1
  %10 = load ptr, ptr %5, align 8
  %11 = getelementptr inbounds %"struct.DwarfFile::DebugAranges::DebugArangesSetHeader", ptr %10, i32 0, i32 0
  %12 = call noundef zeroext i1 @_ZN9DwarfFile21MarkedDwarfFileReader10read_dwordEPj(ptr noundef nonnull align 8 dereferenceable(40) %9, ptr noundef %11)
  br i1 %12, label %13, label %18

13:                                               ; preds = %2
  %14 = load ptr, ptr %5, align 8
  %15 = getelementptr inbounds %"struct.DwarfFile::DebugAranges::DebugArangesSetHeader", ptr %14, i32 0, i32 0
  %16 = load i32, ptr %15, align 4
  %17 = icmp eq i32 %16, -1
  br i1 %17, label %18, label %19

18:                                               ; preds = %13, %2
  store i1 false, ptr %3, align 1
  br label %84

19:                                               ; preds = %13
  %20 = getelementptr inbounds %"class.DwarfFile::DebugAranges", ptr %8, i32 0, i32 1
  %21 = call noundef i64 @_ZNK9DwarfFile21MarkedDwarfFileReader12get_positionEv(ptr noundef nonnull align 8 dereferenceable(40) %20)
  %22 = load ptr, ptr %5, align 8
  %23 = getelementptr inbounds %"struct.DwarfFile::DebugAranges::DebugArangesSetHeader", ptr %22, i32 0, i32 0
  %24 = load i32, ptr %23, align 4
  %25 = zext i32 %24 to i64
  %26 = add nsw i64 %21, %25
  %27 = getelementptr inbounds %"class.DwarfFile::DebugAranges", ptr %8, i32 0, i32 3
  store i64 %26, ptr %27, align 8
  %28 = getelementptr inbounds %"class.DwarfFile::DebugAranges", ptr %8, i32 0, i32 1
  %29 = load ptr, ptr %5, align 8
  %30 = getelementptr inbounds %"struct.DwarfFile::DebugAranges::DebugArangesSetHeader", ptr %29, i32 0, i32 1
  %31 = call noundef zeroext i1 @_ZN9DwarfFile21MarkedDwarfFileReader9read_wordEPt(ptr noundef nonnull align 8 dereferenceable(40) %28, ptr noundef %30)
  br i1 %31, label %32, label %38

32:                                               ; preds = %19
  %33 = load ptr, ptr %5, align 8
  %34 = getelementptr inbounds %"struct.DwarfFile::DebugAranges::DebugArangesSetHeader", ptr %33, i32 0, i32 1
  %35 = load i16, ptr %34, align 4
  %36 = zext i16 %35 to i32
  %37 = icmp ne i32 %36, 2
  br i1 %37, label %38, label %39

38:                                               ; preds = %32, %19
  store i1 false, ptr %3, align 1
  br label %84

39:                                               ; preds = %32
  %40 = getelementptr inbounds %"class.DwarfFile::DebugAranges", ptr %8, i32 0, i32 1
  %41 = load ptr, ptr %5, align 8
  %42 = getelementptr inbounds %"struct.DwarfFile::DebugAranges::DebugArangesSetHeader", ptr %41, i32 0, i32 2
  %43 = call noundef zeroext i1 @_ZN9DwarfFile21MarkedDwarfFileReader10read_dwordEPj(ptr noundef nonnull align 8 dereferenceable(40) %40, ptr noundef %42)
  br i1 %43, label %45, label %44

44:                                               ; preds = %39
  store i1 false, ptr %3, align 1
  br label %84

45:                                               ; preds = %39
  %46 = getelementptr inbounds %"class.DwarfFile::DebugAranges", ptr %8, i32 0, i32 1
  %47 = load ptr, ptr %5, align 8
  %48 = getelementptr inbounds %"struct.DwarfFile::DebugAranges::DebugArangesSetHeader", ptr %47, i32 0, i32 3
  %49 = call noundef zeroext i1 @_ZN9DwarfFile21MarkedDwarfFileReader9read_byteEPv(ptr noundef nonnull align 8 dereferenceable(40) %46, ptr noundef %48)
  br i1 %49, label %50, label %56

50:                                               ; preds = %45
  %51 = load ptr, ptr %5, align 8
  %52 = getelementptr inbounds %"struct.DwarfFile::DebugAranges::DebugArangesSetHeader", ptr %51, i32 0, i32 3
  %53 = load i8, ptr %52, align 4
  %54 = zext i8 %53 to i32
  %55 = icmp ne i32 %54, 8
  br i1 %55, label %56, label %57

56:                                               ; preds = %50, %45
  store i1 false, ptr %3, align 1
  br label %84

57:                                               ; preds = %50
  %58 = getelementptr inbounds %"class.DwarfFile::DebugAranges", ptr %8, i32 0, i32 1
  %59 = load ptr, ptr %5, align 8
  %60 = getelementptr inbounds %"struct.DwarfFile::DebugAranges::DebugArangesSetHeader", ptr %59, i32 0, i32 4
  %61 = call noundef zeroext i1 @_ZN9DwarfFile21MarkedDwarfFileReader9read_byteEPv(ptr noundef nonnull align 8 dereferenceable(40) %58, ptr noundef %60)
  br i1 %61, label %62, label %68

62:                                               ; preds = %57
  %63 = load ptr, ptr %5, align 8
  %64 = getelementptr inbounds %"struct.DwarfFile::DebugAranges::DebugArangesSetHeader", ptr %63, i32 0, i32 4
  %65 = load i8, ptr %64, align 1
  %66 = zext i8 %65 to i32
  %67 = icmp ne i32 %66, 0
  br i1 %67, label %68, label %69

68:                                               ; preds = %62, %57
  store i1 false, ptr %3, align 1
  br label %84

69:                                               ; preds = %62
  store i8 16, ptr %6, align 1
  %70 = load i8, ptr %6, align 1
  %71 = zext i8 %70 to i64
  %72 = getelementptr inbounds %"class.DwarfFile::DebugAranges", ptr %8, i32 0, i32 1
  %73 = call noundef i64 @_ZNK9DwarfFile21MarkedDwarfFileReader12get_positionEv(ptr noundef nonnull align 8 dereferenceable(40) %72)
  %74 = getelementptr inbounds %"class.DwarfFile::DebugAranges", ptr %8, i32 0, i32 2
  %75 = load i64, ptr %74, align 8
  %76 = sub i64 %73, %75
  %77 = load i8, ptr %6, align 1
  %78 = zext i8 %77 to i64
  %79 = urem i64 %76, %78
  %80 = sub i64 %71, %79
  store i64 %80, ptr %7, align 8
  %81 = getelementptr inbounds %"class.DwarfFile::DebugAranges", ptr %8, i32 0, i32 1
  %82 = load i64, ptr %7, align 8
  %83 = call noundef zeroext i1 @_ZN9DwarfFile21MarkedDwarfFileReader13move_positionEl(ptr noundef nonnull align 8 dereferenceable(40) %81, i64 noundef %82)
  store i1 %83, ptr %3, align 1
  br label %84

84:                                               ; preds = %69, %68, %56, %44, %38, %18
  %85 = load i1, ptr %3, align 1
  ret i1 %85
}