; Function Attrs: mustprogress nounwind uwtable
define hidden noundef zeroext i1 @_ZN9DwarfFile12DebugAranges15read_set_headerERNS0_21DebugArangesSetHeaderE(ptr noundef nonnull align 8 dereferenceable(64) %0, ptr nocapture noundef nonnull align 4 dereferenceable(16) %1) local_unnamed_addr #0 align 2 {
  %3 = getelementptr inbounds i8, ptr %0, i64 8
  %4 = getelementptr inbounds i8, ptr %0, i64 32
  %5 = load i64, ptr %4, align 8
  %6 = add nsw i64 %5, 4
  store i64 %6, ptr %4, align 8
  %7 = getelementptr inbounds i8, ptr %0, i64 16
  %8 = load ptr, ptr %7, align 8
  %9 = tail call i64 @fread(ptr noundef nonnull %1, i64 noundef 4, i64 noundef 1, ptr noundef %8)
  %10 = icmp ne i64 %9, 1
  %11 = load i32, ptr %1, align 4
  %12 = icmp eq i32 %11, -1
  %or.cond = select i1 %10, i1 true, i1 %12
  br i1 %or.cond, label %57, label %13

13:                                               ; preds = %2
  %14 = load i64, ptr %4, align 8
  %15 = zext i32 %11 to i64
  %16 = add nsw i64 %14, %15
  %17 = getelementptr inbounds i8, ptr %0, i64 56
  store i64 %16, ptr %17, align 8
  %18 = getelementptr inbounds i8, ptr %1, i64 4
  %19 = add nsw i64 %14, 2
  store i64 %19, ptr %4, align 8
  %20 = load ptr, ptr %7, align 8
  %21 = tail call i64 @fread(ptr noundef nonnull %18, i64 noundef 2, i64 noundef 1, ptr noundef %20)
  %22 = icmp eq i64 %21, 1
  %23 = load i16, ptr %18, align 4
  %.not = icmp eq i16 %23, 2
  %or.cond18 = select i1 %22, i1 %.not, i1 false
  br i1 %or.cond18, label %24, label %57

24:                                               ; preds = %13
  %25 = getelementptr inbounds i8, ptr %1, i64 8
  %26 = load i64, ptr %4, align 8
  %27 = add nsw i64 %26, 4
  store i64 %27, ptr %4, align 8
  %28 = load ptr, ptr %7, align 8
  %29 = tail call i64 @fread(ptr noundef nonnull %25, i64 noundef 4, i64 noundef 1, ptr noundef %28)
  %30 = icmp eq i64 %29, 1
  br i1 %30, label %31, label %57

31:                                               ; preds = %24
  %32 = getelementptr inbounds i8, ptr %1, i64 12
  %33 = load i64, ptr %4, align 8
  %34 = add nsw i64 %33, 1
  store i64 %34, ptr %4, align 8
  %35 = load ptr, ptr %7, align 8
  %36 = tail call i64 @fread(ptr noundef nonnull %32, i64 noundef 1, i64 noundef 1, ptr noundef %35)
  %37 = icmp eq i64 %36, 1
  %38 = load i8, ptr %32, align 4
  %.not14 = icmp eq i8 %38, 8
  %or.cond19 = select i1 %37, i1 %.not14, i1 false
  br i1 %or.cond19, label %39, label %57

39:                                               ; preds = %31
  %40 = getelementptr inbounds i8, ptr %1, i64 13
  %41 = load i64, ptr %4, align 8
  %42 = add nsw i64 %41, 1
  store i64 %42, ptr %4, align 8
  %43 = load ptr, ptr %7, align 8
  %44 = tail call i64 @fread(ptr noundef nonnull %40, i64 noundef 1, i64 noundef 1, ptr noundef %43)
  %45 = icmp eq i64 %44, 1
  %46 = load i8, ptr %40, align 1
  %.not15 = icmp eq i8 %46, 0
  %or.cond20 = select i1 %45, i1 %.not15, i1 false
  br i1 %or.cond20, label %47, label %57

47:                                               ; preds = %39
  %48 = load i64, ptr %4, align 8
  %49 = getelementptr inbounds i8, ptr %0, i64 48
  %50 = load i64, ptr %49, align 8
  %51 = sub i64 %48, %50
  %52 = and i64 %51, 15
  %reass.sub = add i64 %48, 16
  %53 = sub i64 %reass.sub, %52
  %54 = load ptr, ptr %3, align 8
  %55 = load ptr, ptr %54, align 8
  %56 = tail call noundef zeroext i1 %55(ptr noundef nonnull align 8 dereferenceable(40) %3, i64 noundef %53) #15
  br label %57

57:                                               ; preds = %39, %31, %24, %13, %2, %47
  %.0 = phi i1 [ %56, %47 ], [ false, %2 ], [ false, %13 ], [ false, %24 ], [ false, %31 ], [ false, %39 ]
  ret i1 %.0
}